target datalayout = "e-m:e-p270:32:32-p271:32:32-p272:64:64-i64:64-i128:128-f80:128-n8:16:32:64-S128"
target triple = "x86_64-pc-linux-gnu"

%struct.cgroup_conf_t = type { ptr, ptr, i8, i8, float, float, i64, i8, float, float, i64, i8, ptr, i8, i8, i8, i8, i64 }
%struct.slurmd_config = type { ptr, ptr, i32, [4096 x i8], ptr, ptr, ptr, ptr, i16, i16, i16, i16, ptr, i16, i64, i16, i16, i16, i16, i16, i16, i16, i16, i16, i16, i16, i64, i64, i32, i32, i16, ptr, ptr, ptr, i32, ptr, ptr, ptr, ptr, ptr, ptr, ptr, ptr, ptr, ptr, i32, ptr, ptr, i16, i32, i32, %struct.log_options_t, i32, i16, i64, i8, i8, i8, i8, i8, %union.pthread_mutex_t, i16, ptr, %union.pthread_cond_t, ptr, %union.pthread_cond_t, i8, i8, ptr, ptr }
%struct.log_options_t = type { i32, i32, i32, i8, i8, i8, i32 }
%union.pthread_mutex_t = type { %struct.__pthread_mutex_s }
%struct.__pthread_mutex_s = type { i32, i32, i32, i32, i32, i16, i16, %struct.__pthread_internal_list }
%struct.__pthread_internal_list = type { ptr, ptr }
%union.pthread_cond_t = type { %struct.__pthread_cond_s }
%struct.__pthread_cond_s = type { %union.__atomic_wide_counter, %union.__atomic_wide_counter, [2 x i32], [2 x i32], i32, i32, [2 x i32] }
%union.__atomic_wide_counter = type { i64 }

@slurm_cgroup_conf = external global %struct.cgroup_conf_t, align 8
@constrain_ram_space = internal global i8 0, align 1
@constrain_swap_space = internal global i8 0, align 1
@allowed_ram_space = internal global float 0.000000e+00, align 4
@allowed_swap_space = internal global float 0.000000e+00, align 4
@conf = external global ptr, align 8
@totalram = internal global i64 0, align 8
@.str = private unnamed_addr constant [30 x i8] c"Unable to get RealMemory size\00", align 1
@max_ram = internal global i64 0, align 8
@max_swap = internal global i64 0, align 8
@min_ram_space = internal global i64 0, align 8
@.str.1 = private unnamed_addr constant [133 x i8] c"%s: %s: task/cgroup/memory: TotCfgRealMem:%luM allowed:%.4g%%(%s), swap:%.4g%%(%s), max:%.4g%%(%luM) max+swap:%.4g%%(%luM) min:%luM \00", align 1
@plugin_type = external constant [0 x i8], align 1
@__func__.task_cgroup_memory_init = private unnamed_addr constant [24 x i8] c"task_cgroup_memory_init\00", align 1
@.str.2 = private unnamed_addr constant [9 x i8] c"enforced\00", align 1
@.str.3 = private unnamed_addr constant [11 x i8] c"permissive\00", align 1
@.str.4 = private unnamed_addr constant [19 x i8] c"SLURMSTEPD_OOM_ADJ\00", align 1
@.str.5 = private unnamed_addr constant [6 x i8] c"-1000\00", align 1

; Function Attrs: nounwind uwtable
define internal i64 @percent_in_bytes(i64 noundef %0, float noundef %1) #0 {
  %3 = alloca i64, align 8
  %4 = alloca float, align 4
  store i64 %0, ptr %3, align 8
  store float %1, ptr %4, align 4
  %5 = load i64, ptr %3, align 8
  %6 = mul i64 %5, 1024
  %7 = mul i64 %6, 1024
  %8 = uitofp i64 %7 to double
  %9 = load float, ptr %4, align 4
  %10 = fpext float %9 to double
  %11 = fdiv double %10, 1.000000e+02
  %12 = fmul double %8, %11
  %13 = fptoui double %12 to i64
  ret i64 %13
}

; Function Attrs: nounwind uwtable
define dso_local i32 @task_cgroup_memory_init() #0 {
  %1 = alloca i32, align 4
  %2 = call i32 @cgroup_g_initialize(i32 noundef 2)
  %3 = icmp ne i32 %2, 0
  br i1 %3, label %4, label %5

4:                                                ; preds = %0
  store i32 -1, ptr %1, align 4
  br label %67

5:                                                ; preds = %0
  %6 = load i8, ptr getelementptr inbounds nuw (%struct.cgroup_conf_t, ptr @slurm_cgroup_conf, i32 0, i32 3), align 1, !range !8, !noundef !9
  %7 = trunc i8 %6 to i1
  %8 = zext i1 %7 to i8
  store i8 %8, ptr @constrain_ram_space, align 1
  %9 = load i8, ptr getelementptr inbounds nuw (%struct.cgroup_conf_t, ptr @slurm_cgroup_conf, i32 0, i32 7), align 8, !range !8, !noundef !9
  %10 = trunc i8 %9 to i1
  %11 = zext i1 %10 to i8
  store i8 %11, ptr @constrain_swap_space, align 1
  %12 = load i8, ptr @constrain_ram_space, align 1, !range !8, !noundef !9
  %13 = trunc i8 %12 to i1
  br i1 %13, label %14, label %16

14:                                               ; preds = %5
  %15 = load float, ptr getelementptr inbounds nuw (%struct.cgroup_conf_t, ptr @slurm_cgroup_conf, i32 0, i32 4), align 4
  store float %15, ptr @allowed_ram_space, align 4
  br label %17

16:                                               ; preds = %5
  store float 1.000000e+02, ptr @allowed_ram_space, align 4
  br label %17

17:                                               ; preds = %16, %14
  %18 = load float, ptr getelementptr inbounds nuw (%struct.cgroup_conf_t, ptr @slurm_cgroup_conf, i32 0, i32 8), align 4
  store float %18, ptr @allowed_swap_space, align 4
  %19 = load ptr, ptr @conf, align 8
  %20 = getelementptr inbounds nuw %struct.slurmd_config, ptr %19, i32 0, i32 26
  %21 = load i64, ptr %20, align 8
  store i64 %21, ptr @totalram, align 8
  %22 = icmp eq i64 %21, 0
  br i1 %22, label %23, label %25

23:                                               ; preds = %17
  %24 = call i32 (ptr, ...) @error(ptr noundef @.str)
  br label %25

25:                                               ; preds = %23, %17
  %26 = load i64, ptr @totalram, align 8
  %27 = load float, ptr getelementptr inbounds nuw (%struct.cgroup_conf_t, ptr @slurm_cgroup_conf, i32 0, i32 5), align 8
  %28 = call i64 @percent_in_bytes(i64 noundef %26, float noundef %27)
  store i64 %28, ptr @max_ram, align 8
  %29 = load i64, ptr @totalram, align 8
  %30 = load float, ptr getelementptr inbounds nuw (%struct.cgroup_conf_t, ptr @slurm_cgroup_conf, i32 0, i32 9), align 8
  %31 = call i64 @percent_in_bytes(i64 noundef %29, float noundef %30)
  store i64 %31, ptr @max_swap, align 8
  %32 = load i64, ptr @max_ram, align 8
  %33 = load i64, ptr @max_swap, align 8
  %34 = add i64 %33, %32
  store i64 %34, ptr @max_swap, align 8
  %35 = load i64, ptr getelementptr inbounds nuw (%struct.cgroup_conf_t, ptr @slurm_cgroup_conf, i32 0, i32 6), align 8
  %36 = mul i64 %35, 1024
  %37 = mul i64 %36, 1024
  store i64 %37, ptr @min_ram_space, align 8
  br label %38

38:                                               ; preds = %25
  br label %39

39:                                               ; preds = %38
  %40 = call i32 @get_log_level()
  %41 = icmp sge i32 %40, 5
  br i1 %41, label %42, label %63

42:                                               ; preds = %39
  %43 = load i64, ptr @totalram, align 8
  %44 = load float, ptr @allowed_ram_space, align 4
  %45 = fpext float %44 to double
  %46 = load i8, ptr @constrain_ram_space, align 1, !range !8, !noundef !9
  %47 = trunc i8 %46 to i1
  %48 = select i1 %47, ptr @.str.2, ptr @.str.3
  %49 = load float, ptr @allowed_swap_space, align 4
  %50 = fpext float %49 to double
  %51 = load i8, ptr @constrain_swap_space, align 1, !range !8, !noundef !9
  %52 = trunc i8 %51 to i1
  %53 = select i1 %52, ptr @.str.2, ptr @.str.3
  %54 = load float, ptr getelementptr inbounds nuw (%struct.cgroup_conf_t, ptr @slurm_cgroup_conf, i32 0, i32 5), align 8
  %55 = fpext float %54 to double
  %56 = load i64, ptr @max_ram, align 8
  %57 = udiv i64 %56, 1048576
  %58 = load float, ptr getelementptr inbounds nuw (%struct.cgroup_conf_t, ptr @slurm_cgroup_conf, i32 0, i32 9), align 8
  %59 = fpext float %58 to double
  %60 = load i64, ptr @max_swap, align 8
  %61 = udiv i64 %60, 1048576
  %62 = load i64, ptr getelementptr inbounds nuw (%struct.cgroup_conf_t, ptr @slurm_cgroup_conf, i32 0, i32 6), align 8
  call void (i32, ptr, ...) @log_var(i32 noundef 5, ptr noundef @.str.1, ptr noundef @plugin_type, ptr noundef @__func__.task_cgroup_memory_init, i64 noundef %43, double noundef %45, ptr noundef %48, double noundef %50, ptr noundef %53, double noundef %55, i64 noundef %57, double noundef %59, i64 noundef %61, i64 noundef %62)
  br label %63

63:                                               ; preds = %42, %39
  br label %64

64:                                               ; preds = %63
  br label %65

65:                                               ; preds = %64
  %66 = call i32 @setenv(ptr noundef @.str.4, ptr noundef @.str.5, i32 noundef 0) #4
  store i32 0, ptr %1, align 4
  br label %67

67:                                               ; preds = %65, %4
  %68 = load i32, ptr %1, align 4
  ret i32 %68
}