; Function Attrs: nounwind uwtable
define dso_local range(i32 -1, 1) i32 @task_cgroup_memory_init() local_unnamed_addr #0 {
  %1 = tail call i32 @cgroup_g_initialize(i32 noundef 2) #5
  %.not = icmp eq i32 %1, 0
  br i1 %.not, label %2, label %56

2:                                                ; preds = %0
  %3 = load i8, ptr getelementptr inbounds nuw (i8, ptr @slurm_cgroup_conf, i64 17), align 1, !range !8, !noundef !9
  store i8 %3, ptr @constrain_ram_space, align 1
  %4 = load i8, ptr getelementptr inbounds nuw (i8, ptr @slurm_cgroup_conf, i64 40), align 8, !range !8, !noundef !9
  store i8 %4, ptr @constrain_swap_space, align 1
  %5 = trunc nuw i8 %3 to i1
  %6 = load float, ptr getelementptr inbounds nuw (i8, ptr @slurm_cgroup_conf, i64 20), align 4
  %storemerge = select i1 %5, float %6, float 1.000000e+02
  store float %storemerge, ptr @allowed_ram_space, align 4
  %7 = load float, ptr getelementptr inbounds nuw (i8, ptr @slurm_cgroup_conf, i64 44), align 4
  store float %7, ptr @allowed_swap_space, align 4
  %8 = load ptr, ptr @conf, align 8
  %9 = getelementptr inbounds nuw i8, ptr %8, i64 4208
  %10 = load i64, ptr %9, align 8
  store i64 %10, ptr @totalram, align 8
  %11 = icmp eq i64 %10, 0
  br i1 %11, label %12, label %14

12:                                               ; preds = %2
  %13 = tail call i32 (ptr, ...) @error(ptr noundef nonnull @.str) #5
  %.pre = load i64, ptr @totalram, align 8
  br label %14

14:                                               ; preds = %12, %2
  %15 = phi i64 [ %.pre, %12 ], [ %10, %2 ]
  %16 = load float, ptr getelementptr inbounds nuw (i8, ptr @slurm_cgroup_conf, i64 24), align 8
  %17 = shl i64 %15, 20
  %18 = uitofp i64 %17 to double
  %19 = fpext float %16 to double
  %20 = fdiv double %19, 1.000000e+02
  %21 = fmul double %20, %18
  %22 = fptoui double %21 to i64
  store i64 %22, ptr @max_ram, align 8
  %23 = load float, ptr getelementptr inbounds nuw (i8, ptr @slurm_cgroup_conf, i64 48), align 8
  %24 = fpext float %23 to double
  %25 = fdiv double %24, 1.000000e+02
  %26 = fmul double %25, %18
  %27 = fptoui double %26 to i64
  %28 = add i64 %27, %22
  store i64 %28, ptr @max_swap, align 8
  %29 = load i64, ptr getelementptr inbounds nuw (i8, ptr @slurm_cgroup_conf, i64 32), align 8
  %30 = shl i64 %29, 20
  store i64 %30, ptr @min_ram_space, align 8
  %31 = tail call i32 @get_log_level() #5
  %32 = icmp sgt i32 %31, 4
  br i1 %32, label %33, label %54

33:                                               ; preds = %14
  %34 = load i64, ptr @totalram, align 8
  %35 = load float, ptr @allowed_ram_space, align 4
  %36 = fpext float %35 to double
  %37 = load i8, ptr @constrain_ram_space, align 1, !range !8, !noundef !9
  %38 = trunc nuw i8 %37 to i1
  %39 = select i1 %38, ptr @.str.2, ptr @.str.3
  %40 = load float, ptr @allowed_swap_space, align 4
  %41 = fpext float %40 to double
  %42 = load i8, ptr @constrain_swap_space, align 1, !range !8, !noundef !9
  %43 = trunc nuw i8 %42 to i1
  %44 = select i1 %43, ptr @.str.2, ptr @.str.3
  %45 = load float, ptr getelementptr inbounds nuw (i8, ptr @slurm_cgroup_conf, i64 24), align 8
  %46 = fpext float %45 to double
  %47 = load i64, ptr @max_ram, align 8
  %48 = lshr i64 %47, 20
  %49 = load float, ptr getelementptr inbounds nuw (i8, ptr @slurm_cgroup_conf, i64 48), align 8
  %50 = fpext float %49 to double
  %51 = load i64, ptr @max_swap, align 8
  %52 = lshr i64 %51, 20
  %53 = load i64, ptr getelementptr inbounds nuw (i8, ptr @slurm_cgroup_conf, i64 32), align 8
  tail call void (i32, ptr, ...) @log_var(i32 noundef 5, ptr noundef nonnull @.str.1, ptr noundef nonnull @plugin_type, ptr noundef nonnull @__func__.task_cgroup_memory_init, i64 noundef %34, double noundef %36, ptr noundef nonnull %39, double noundef %41, ptr noundef nonnull %44, double noundef %46, i64 noundef %48, double noundef %50, i64 noundef %52, i64 noundef %53) #5
  br label %54

54:                                               ; preds = %33, %14
  %55 = tail call i32 @setenv(ptr noundef nonnull @.str.4, ptr noundef nonnull @.str.5, i32 noundef 0) #5
  br label %56

56:                                               ; preds = %0, %54
  %.0 = phi i32 [ 0, %54 ], [ -1, %0 ]
  ret i32 %.0
}